target datalayout = "e-m:e-p270:32:32-p271:32:32-p272:64:64-i64:64-i128:128-f80:128-n8:16:32:64-S128"
target triple = "x86_64-pc-linux-gnu"

@.str = private unnamed_addr constant [1 x i32] zeroinitializer, align 4
@.str.1 = private unnamed_addr constant [4 x i32] [i32 32, i32 37, i32 115, i32 0], align 4

; Function Attrs: mustprogress nounwind uwtable
define linkonce_odr void @_Z7mprintfPKwz(ptr noundef %0, ...) #4 comdat {
  %2 = alloca ptr, align 8
  store ptr %0, ptr %2, align 8
  ret void
}

; Function Attrs: mustprogress uwtable
define noundef i32 @_Z7MakeDirPKwbj(ptr noundef %0, i1 noundef zeroext %1, i32 noundef %2) #0 {
  %4 = alloca i32, align 4
  %5 = alloca ptr, align 8
  %6 = alloca i8, align 1
  %7 = alloca i32, align 4
  %8 = alloca [2048 x i8], align 16
  %9 = alloca i32, align 4
  %10 = alloca i32, align 4
  store ptr %0, ptr %5, align 8
  %11 = zext i1 %1 to i8
  store i8 %11, ptr %6, align 1
  store i32 %2, ptr %7, align 4
  %12 = load ptr, ptr %5, align 8
  %13 = getelementptr inbounds [2048 x i8], ptr %8, i64 0, i64 0
  %14 = call noundef zeroext i1 @_Z10WideToCharPKwPcm(ptr noundef %12, ptr noundef %13, i64 noundef 2048)
  %15 = load i8, ptr %6, align 1
  %16 = trunc i8 %15 to i1
  br i1 %16, label %17, label %19

17:                                               ; preds = %3
  %18 = load i32, ptr %7, align 4
  br label %20

19:                                               ; preds = %3
  br label %20

20:                                               ; preds = %19, %17
  %21 = phi i32 [ %18, %17 ], [ 511, %19 ]
  store i32 %21, ptr %9, align 4
  %22 = getelementptr inbounds [2048 x i8], ptr %8, i64 0, i64 0
  %23 = load i32, ptr %9, align 4
  %24 = call i32 @mkdir(ptr noundef %22, i32 noundef %23) #9
  store i32 %24, ptr %10, align 4
  %25 = load i32, ptr %10, align 4
  %26 = icmp eq i32 %25, -1
  br i1 %26, label %27, label %32

27:                                               ; preds = %20
  %28 = call ptr @__errno_location() #10
  %29 = load i32, ptr %28, align 4
  %30 = icmp eq i32 %29, 2
  %31 = select i1 %30, i32 2, i32 1
  store i32 %31, ptr %4, align 4
  br label %33

32:                                               ; preds = %20
  store i32 0, ptr %4, align 4
  br label %33

33:                                               ; preds = %32, %27
  %34 = load i32, ptr %4, align 4
  ret i32 %34
}

; Function Attrs: mustprogress uwtable
define noundef zeroext i1 @_Z10CreatePathPKwbb(ptr noundef %0, i1 noundef zeroext %1, i1 noundef zeroext %2) #0 {
  %4 = alloca i1, align 1
  %5 = alloca ptr, align 8
  %6 = alloca i8, align 1
  %7 = alloca i8, align 1
  %8 = alloca i32, align 4
  %9 = alloca i8, align 1
  %10 = alloca ptr, align 8
  %11 = alloca [2048 x i32], align 16
  store ptr %0, ptr %5, align 8
  %12 = zext i1 %1 to i8
  store i8 %12, ptr %6, align 1
  %13 = zext i1 %2 to i8
  store i8 %13, ptr %7, align 1
  %14 = load ptr, ptr %5, align 8
  %15 = icmp eq ptr %14, null
  br i1 %15, label %20, label %16

16:                                               ; preds = %3
  %17 = load ptr, ptr %5, align 8
  %18 = load i32, ptr %17, align 4
  %19 = icmp eq i32 %18, 0
  br i1 %19, label %20, label %21

20:                                               ; preds = %16, %3
  store i1 false, ptr %4, align 1
  br label %95

21:                                               ; preds = %16
  store i32 511, ptr %8, align 4
  store i8 1, ptr %9, align 1
  %22 = load ptr, ptr %5, align 8
  store ptr %22, ptr %10, align 8
  br label %23

23:                                               ; preds = %75, %21
  %24 = load ptr, ptr %10, align 8
  %25 = load i32, ptr %24, align 4
  %26 = icmp ne i32 %25, 0
  br i1 %26, label %27, label %78

27:                                               ; preds = %23
  %28 = load ptr, ptr %10, align 8
  %29 = load ptr, ptr %5, align 8
  %30 = ptrtoint ptr %28 to i64
  %31 = ptrtoint ptr %29 to i64
  %32 = sub i64 %30, %31
  %33 = sdiv exact i64 %32, 4
  %34 = icmp uge i64 %33, 2048
  br i1 %34, label %35, label %36

35:                                               ; preds = %27
  br label %78

36:                                               ; preds = %27
  %37 = load ptr, ptr %10, align 8
  %38 = load i32, ptr %37, align 4
  %39 = call noundef zeroext i1 @_Z9IsPathDivi(i32 noundef %38)
  br i1 %39, label %40, label %74

40:                                               ; preds = %36
  %41 = load ptr, ptr %10, align 8
  %42 = load ptr, ptr %5, align 8
  %43 = icmp ugt ptr %41, %42
  br i1 %43, label %44, label %74

44:                                               ; preds = %40
  %45 = getelementptr inbounds [2048 x i32], ptr %11, i64 0, i64 0
  %46 = load ptr, ptr %5, align 8
  %47 = load ptr, ptr %10, align 8
  %48 = load ptr, ptr %5, align 8
  %49 = ptrtoint ptr %47 to i64
  %50 = ptrtoint ptr %48 to i64
  %51 = sub i64 %49, %50
  %52 = sdiv exact i64 %51, 4
  %53 = call ptr @wcsncpy(ptr noundef %45, ptr noundef %46, i64 noundef %52) #9
  %54 = load ptr, ptr %10, align 8
  %55 = load ptr, ptr %5, align 8
  %56 = ptrtoint ptr %54 to i64
  %57 = ptrtoint ptr %55 to i64
  %58 = sub i64 %56, %57
  %59 = sdiv exact i64 %58, 4
  %60 = getelementptr inbounds [2048 x i32], ptr %11, i64 0, i64 %59
  store i32 0, ptr %60, align 4
  %61 = getelementptr inbounds [2048 x i32], ptr %11, i64 0, i64 0
  %62 = load i32, ptr %8, align 4
  %63 = call noundef i32 @_Z7MakeDirPKwbj(ptr noundef %61, i1 noundef zeroext true, i32 noundef %62)
  %64 = icmp eq i32 %63, 0
  %65 = zext i1 %64 to i8
  store i8 %65, ptr %9, align 1
  %66 = load i8, ptr %9, align 1
  %67 = trunc i8 %66 to i1
  br i1 %67, label %68, label %73

68:                                               ; preds = %44
  %69 = load i8, ptr %7, align 1
  %70 = trunc i8 %69 to i1
  br i1 %70, label %73, label %71

71:                                               ; preds = %68
  %72 = getelementptr inbounds [2048 x i32], ptr %11, i64 0, i64 0
  call void (ptr, ...) @_Z7mprintfPKwz(ptr noundef @.str, ptr noundef %72)
  call void (ptr, ...) @_Z7mprintfPKwz(ptr noundef @.str.1, ptr noundef @.str)
  br label %73

73:                                               ; preds = %71, %68, %44
  br label %74

74:                                               ; preds = %73, %40, %36
  br label %75

75:                                               ; preds = %74
  %76 = load ptr, ptr %10, align 8
  %77 = getelementptr inbounds i32, ptr %76, i32 1
  store ptr %77, ptr %10, align 8
  br label %23, !llvm.loop !4

78:                                               ; preds = %35, %23
  %79 = load i8, ptr %6, align 1
  %80 = trunc i8 %79 to i1
  br i1 %80, label %92, label %81

81:                                               ; preds = %78
  %82 = load ptr, ptr %5, align 8
  %83 = call noundef ptr @_Z15PointToLastCharPKw(ptr noundef %82)
  %84 = load i32, ptr %83, align 4
  %85 = call noundef zeroext i1 @_Z9IsPathDivi(i32 noundef %84)
  br i1 %85, label %92, label %86

86:                                               ; preds = %81
  %87 = load ptr, ptr %5, align 8
  %88 = load i32, ptr %8, align 4
  %89 = call noundef i32 @_Z7MakeDirPKwbj(ptr noundef %87, i1 noundef zeroext true, i32 noundef %88)
  %90 = icmp eq i32 %89, 0
  %91 = zext i1 %90 to i8
  store i8 %91, ptr %9, align 1
  br label %92

92:                                               ; preds = %86, %81, %78
  %93 = load i8, ptr %9, align 1
  %94 = trunc i8 %93 to i1
  store i1 %94, ptr %4, align 1
  br label %95

95:                                               ; preds = %92, %20
  %96 = load i1, ptr %4, align 1
  ret i1 %96
}