; Function Attrs: mustprogress uwtable
define noundef zeroext i1 @_Z10CreatePathPKwbb(ptr noundef %0, i1 noundef zeroext %1, i1 noundef zeroext %2) local_unnamed_addr #0 {
  %4 = alloca [2048 x i8], align 16
  %5 = alloca [2048 x i8], align 16
  %6 = alloca [2048 x i32], align 16
  %7 = icmp eq ptr %0, null
  br i1 %7, label %37, label %8

8:                                                ; preds = %3
  %9 = load i32, ptr %0, align 4
  %10 = icmp eq i32 %9, 0
  br i1 %10, label %37, label %.preheader

.preheader:                                       ; preds = %8
  %11 = ptrtoint ptr %0 to i64
  br label %12

12:                                               ; preds = %.preheader, %27
  %.035 = phi ptr [ %0, %.preheader ], [ %28, %27 ]
  %.02334 = phi i1 [ true, %.preheader ], [ %.1, %27 ]
  %13 = phi i32 [ %9, %.preheader ], [ %.pr, %27 ]
  %14 = ptrtoint ptr %.035 to i64
  %15 = sub i64 %14, %11
  %16 = ashr exact i64 %15, 2
  %17 = icmp ugt i64 %16, 2047
  br i1 %17, label %29, label %18

18:                                               ; preds = %12
  %19 = call noundef zeroext i1 @_Z9IsPathDivi(i32 noundef %13)
  %20 = icmp ugt ptr %.035, %0
  %or.cond = and i1 %20, %19
  br i1 %or.cond, label %21, label %27

21:                                               ; preds = %18
  %22 = call ptr @wcsncpy(ptr noundef nonnull %6, ptr noundef nonnull %0, i64 noundef %16) #14
  %23 = getelementptr inbounds nuw [2048 x i32], ptr %6, i64 0, i64 %16
  store i32 0, ptr %23, align 4
  call void @llvm.lifetime.start.p0(i64 2048, ptr nonnull %5)
  %24 = call noundef zeroext i1 @_Z10WideToCharPKwPcm(ptr noundef nonnull %6, ptr noundef nonnull %5, i64 noundef 2048)
  %25 = call i32 @mkdir(ptr noundef nonnull %5, i32 noundef 511) #14
  %26 = icmp ne i32 %25, -1
  call void @llvm.lifetime.end.p0(i64 2048, ptr nonnull %5)
  br label %27

27:                                               ; preds = %21, %18
  %.1 = phi i1 [ %.02334, %18 ], [ %26, %21 ]
  %28 = getelementptr inbounds nuw i8, ptr %.035, i64 4
  %.pr = load i32, ptr %28, align 4
  %.not = icmp eq i32 %.pr, 0
  br i1 %.not, label %29, label %12, !llvm.loop !4

29:                                               ; preds = %12, %27
  %.023.lcssa = phi i1 [ %.02334, %12 ], [ %.1, %27 ]
  br i1 %1, label %37, label %30

30:                                               ; preds = %29
  %31 = call noundef ptr @_Z15PointToLastCharPKw(ptr noundef nonnull %0)
  %32 = load i32, ptr %31, align 4
  %33 = call noundef zeroext i1 @_Z9IsPathDivi(i32 noundef %32)
  br i1 %33, label %37, label %_Z7MakeDirPKwbj.exit30

_Z7MakeDirPKwbj.exit30:                           ; preds = %30
  call void @llvm.lifetime.start.p0(i64 2048, ptr nonnull %4)
  %34 = call noundef zeroext i1 @_Z10WideToCharPKwPcm(ptr noundef nonnull %0, ptr noundef nonnull %4, i64 noundef 2048)
  %35 = call i32 @mkdir(ptr noundef nonnull %4, i32 noundef 511) #14
  %36 = icmp ne i32 %35, -1
  call void @llvm.lifetime.end.p0(i64 2048, ptr nonnull %4)
  br label %37

37:                                               ; preds = %29, %30, %_Z7MakeDirPKwbj.exit30, %3, %8
  %.024 = phi i1 [ false, %8 ], [ false, %3 ], [ %.023.lcssa, %29 ], [ %.023.lcssa, %30 ], [ %36, %_Z7MakeDirPKwbj.exit30 ]
  ret i1 %.024
}